target datalayout = "e-m:e-p270:32:32-p271:32:32-p272:64:64-i64:64-i128:128-f80:128-n8:16:32:64-S128"
target triple = "x86_64-pc-linux-gnu"

%"class.std::unique_ptr" = type { %"struct.std::__uniq_ptr_data" }
%"struct.std::__uniq_ptr_data" = type { %"class.std::__uniq_ptr_impl" }
%"class.std::__uniq_ptr_impl" = type { %"class.std::tuple" }
%"class.std::tuple" = type { %"struct.std::_Tuple_impl" }
%"struct.std::_Tuple_impl" = type { %"struct.std::_Head_base.1" }
%"struct.std::_Head_base.1" = type { ptr }
%"class.clang::SourceLocation" = type { i32 }
%"class.llvm::SmallVectorBase" = type { ptr, i32, i32 }
%"class.llvm::BumpPtrAllocatorImpl" = type { ptr, ptr, %"class.llvm::SmallVector", %"class.llvm::SmallVector.13", i64, i64 }
%"class.llvm::SmallVector" = type { %"class.llvm::SmallVectorImpl", %"struct.llvm::SmallVectorStorage" }
%"class.llvm::SmallVectorImpl" = type { %"class.llvm::SmallVectorTemplateBase" }
%"class.llvm::SmallVectorTemplateBase" = type { %"class.llvm::SmallVectorTemplateCommon" }
%"class.llvm::SmallVectorTemplateCommon" = type { %"class.llvm::SmallVectorBase" }
%"struct.llvm::SmallVectorStorage" = type { [32 x i8] }
%"class.llvm::SmallVector.13" = type { %"class.llvm::SmallVectorImpl.14" }
%"class.llvm::SmallVectorImpl.14" = type { %"class.llvm::SmallVectorTemplateBase.15" }
%"class.llvm::SmallVectorTemplateBase.15" = type { %"class.llvm::SmallVectorTemplateCommon.16" }
%"class.llvm::SmallVectorTemplateCommon.16" = type { %"class.llvm::SmallVectorBase" }
%"class.clang::FileID" = type { i32 }
%"class.clang::SourceManager" = type { %"class.llvm::RefCountedBase.109", ptr, ptr, %"class.llvm::BumpPtrAllocatorImpl", %"class.llvm::DenseMap.110", i8, i8, i8, %"class.std::unique_ptr.113", %"class.std::vector.121", %"class.llvm::SmallVector.126", %"class.llvm::PagedVector", %"class.llvm::SmallVector.136", i32, i32, %"class.llvm::BitVector", %"class.llvm::BitVector", ptr, %"class.clang::FileID", %"class.std::unique_ptr.146", %"class.clang::FileID", ptr, i32, i32, %"class.clang::FileID", %"class.clang::FileID", i32, i32, %"class.llvm::DenseMap.154", %"class.llvm::DenseMap.157", %"class.clang::InBeforeInTUCacheEntry", %"class.std::unique_ptr", %"class.std::unique_ptr.160", %"class.std::unique_ptr.168", %"class.llvm::DenseMap.176", %"class.llvm::SmallVector.179" }
%"class.llvm::RefCountedBase.109" = type { i32 }
%"class.llvm::DenseMap.110" = type <{ ptr, i32, i32, i32, [4 x i8] }>
%"class.std::unique_ptr.113" = type { %"struct.std::__uniq_ptr_data.114" }
%"struct.std::__uniq_ptr_data.114" = type { %"class.std::__uniq_ptr_impl.115" }
%"class.std::__uniq_ptr_impl.115" = type { %"class.std::tuple.116" }
%"class.std::tuple.116" = type { %"struct.std::_Tuple_impl.117" }
%"struct.std::_Tuple_impl.117" = type { %"struct.std::_Head_base.120" }
%"struct.std::_Head_base.120" = type { ptr }
%"class.std::vector.121" = type { %"struct.std::_Vector_base.122" }
%"struct.std::_Vector_base.122" = type { %"struct.std::_Vector_base<clang::SrcMgr::ContentCache *, std::allocator<clang::SrcMgr::ContentCache *>>::_Vector_impl" }
%"struct.std::_Vector_base<clang::SrcMgr::ContentCache *, std::allocator<clang::SrcMgr::ContentCache *>>::_Vector_impl" = type { %"struct.std::_Vector_base<clang::SrcMgr::ContentCache *, std::allocator<clang::SrcMgr::ContentCache *>>::_Vector_impl_data" }
%"struct.std::_Vector_base<clang::SrcMgr::ContentCache *, std::allocator<clang::SrcMgr::ContentCache *>>::_Vector_impl_data" = type { ptr, ptr, ptr }
%"class.llvm::SmallVector.126" = type { %"class.llvm::SmallVectorImpl.127" }
%"class.llvm::SmallVectorImpl.127" = type { %"class.llvm::SmallVectorTemplateBase.128" }
%"class.llvm::SmallVectorTemplateBase.128" = type { %"class.llvm::SmallVectorTemplateCommon.129" }
%"class.llvm::SmallVectorTemplateCommon.129" = type { %"class.llvm::SmallVectorBase" }
%"class.llvm::PagedVector" = type { i64, %"class.llvm::SmallVector.131", %"class.llvm::PointerIntPair" }
%"class.llvm::SmallVector.131" = type { %"class.llvm::SmallVectorImpl.132" }
%"class.llvm::SmallVectorImpl.132" = type { %"class.llvm::SmallVectorTemplateBase.133" }
%"class.llvm::SmallVectorTemplateBase.133" = type { %"class.llvm::SmallVectorTemplateCommon.134" }
%"class.llvm::SmallVectorTemplateCommon.134" = type { %"class.llvm::SmallVectorBase" }
%"class.llvm::PointerIntPair" = type { %"struct.llvm::detail::PunnedPointer" }
%"struct.llvm::detail::PunnedPointer" = type { [8 x i8] }
%"class.llvm::SmallVector.136" = type { %"class.llvm::SmallVectorImpl.137" }
%"class.llvm::SmallVectorImpl.137" = type { %"class.llvm::SmallVectorTemplateBase.138" }
%"class.llvm::SmallVectorTemplateBase.138" = type { %"class.llvm::SmallVectorTemplateCommon.139" }
%"class.llvm::SmallVectorTemplateCommon.139" = type { %"class.llvm::SmallVectorBase" }
%"class.llvm::BitVector" = type <{ %"class.llvm::SmallVector.141", i32, [4 x i8] }>
%"class.llvm::SmallVector.141" = type { %"class.llvm::SmallVectorImpl.142", %"struct.llvm::SmallVectorStorage.145" }
%"class.llvm::SmallVectorImpl.142" = type { %"class.llvm::SmallVectorTemplateBase.143" }
%"class.llvm::SmallVectorTemplateBase.143" = type { %"class.llvm::SmallVectorTemplateCommon.144" }
%"class.llvm::SmallVectorTemplateCommon.144" = type { %"class.llvm::SmallVectorBase" }
%"struct.llvm::SmallVectorStorage.145" = type { [48 x i8] }
%"class.std::unique_ptr.146" = type { %"struct.std::__uniq_ptr_data.147" }
%"struct.std::__uniq_ptr_data.147" = type { %"class.std::__uniq_ptr_impl.148" }
%"class.std::__uniq_ptr_impl.148" = type { %"class.std::tuple.149" }
%"class.std::tuple.149" = type { %"struct.std::_Tuple_impl.150" }
%"struct.std::_Tuple_impl.150" = type { %"struct.std::_Head_base.153" }
%"struct.std::_Head_base.153" = type { ptr }
%"class.llvm::DenseMap.154" = type <{ ptr, i32, i32, i32, [4 x i8] }>
%"class.llvm::DenseMap.157" = type <{ ptr, i32, i32, i32, [4 x i8] }>
%"class.clang::InBeforeInTUCacheEntry" = type { %"class.clang::FileID", %"class.clang::FileID", i8, %"class.clang::FileID", i32, i32 }
%"class.std::unique_ptr.160" = type { %"struct.std::__uniq_ptr_data.161" }
%"struct.std::__uniq_ptr_data.161" = type { %"class.std::__uniq_ptr_impl.162" }
%"class.std::__uniq_ptr_impl.162" = type { %"class.std::tuple.163" }
%"class.std::tuple.163" = type { %"struct.std::_Tuple_impl.164" }
%"struct.std::_Tuple_impl.164" = type { %"struct.std::_Head_base.167" }
%"struct.std::_Head_base.167" = type { ptr }
%"class.std::unique_ptr.168" = type { %"struct.std::__uniq_ptr_data.169" }
%"struct.std::__uniq_ptr_data.169" = type { %"class.std::__uniq_ptr_impl.170" }
%"class.std::__uniq_ptr_impl.170" = type { %"class.std::tuple.171" }
%"class.std::tuple.171" = type { %"struct.std::_Tuple_impl.172" }
%"struct.std::_Tuple_impl.172" = type { %"struct.std::_Head_base.175" }
%"struct.std::_Head_base.175" = type { ptr }
%"class.llvm::DenseMap.176" = type <{ ptr, i32, i32, i32, [4 x i8] }>
%"class.llvm::SmallVector.179" = type { %"class.llvm::SmallVectorImpl.180", %"struct.llvm::SmallVectorStorage.183" }
%"class.llvm::SmallVectorImpl.180" = type { %"class.llvm::SmallVectorTemplateBase.181" }
%"class.llvm::SmallVectorTemplateBase.181" = type { %"class.llvm::SmallVectorTemplateCommon.182" }
%"class.llvm::SmallVectorTemplateCommon.182" = type { %"class.llvm::SmallVectorBase" }
%"struct.llvm::SmallVectorStorage.183" = type { [96 x i8] }
%"class.clang::SrcMgr::SLocEntry" = type { i32, [4 x i8], %union.anon.186 }
%union.anon.186 = type { %"class.clang::SrcMgr::FileInfo" }
%"class.clang::SrcMgr::FileInfo" = type { %"class.clang::SourceLocation", i32, %"class.llvm::PointerIntPair.187" }
%"class.llvm::PointerIntPair.187" = type { %"struct.llvm::detail::PunnedPointer.188" }
%"struct.llvm::detail::PunnedPointer.188" = type { [8 x i8] }

; Function Attrs: mustprogress nounwind uwtable
define linkonce_odr hidden noundef ptr @_ZN4llvm25SmallVectorTemplateCommonIN5clang6SrcMgr9SLocEntryEvE5beginEv(ptr noundef nonnull align 8 dereferenceable(16) %0) #1 comdat align 2 {
  %2 = alloca ptr, align 8
  store ptr %0, ptr %2, align 8
  %3 = load ptr, ptr %2, align 8
  %4 = getelementptr inbounds nuw %"class.llvm::SmallVectorBase", ptr %3, i32 0, i32 0
  %5 = load ptr, ptr %4, align 8
  ret ptr %5
}

; Function Attrs: mustprogress nounwind uwtable
define linkonce_odr hidden noundef nonnull align 8 dereferenceable(24) ptr @_ZN4llvm25SmallVectorTemplateCommonIN5clang6SrcMgr9SLocEntryEvEixEm(ptr noundef nonnull align 8 dereferenceable(16) %0, i64 noundef %1) #1 comdat align 2 {
  %3 = alloca ptr, align 8
  %4 = alloca i64, align 8
  store ptr %0, ptr %3, align 8
  store i64 %1, ptr %4, align 8
  %5 = load ptr, ptr %3, align 8
  %6 = call noundef ptr @_ZN4llvm25SmallVectorTemplateCommonIN5clang6SrcMgr9SLocEntryEvE5beginEv(ptr noundef nonnull align 8 dereferenceable(16) %5)
  %7 = load i64, ptr %4, align 8
  %8 = getelementptr inbounds %"class.clang::SrcMgr::SLocEntry", ptr %6, i64 %7
  ret ptr %8
}

; Function Attrs: mustprogress nounwind uwtable
define linkonce_odr hidden noundef nonnull align 8 dereferenceable(24) ptr @_ZN5clang13SourceManager17getLocalSLocEntryEj(ptr noundef nonnull align 8 dereferenceable(696) %0, i32 noundef %1) #1 comdat align 2 {
  %3 = alloca ptr, align 8
  %4 = alloca i32, align 4
  store ptr %0, ptr %3, align 8
  store i32 %1, ptr %4, align 4
  %5 = load ptr, ptr %3, align 8
  %6 = getelementptr inbounds nuw %"class.clang::SourceManager", ptr %5, i32 0, i32 10
  %7 = load i32, ptr %4, align 4
  %8 = zext i32 %7 to i64
  %9 = call noundef nonnull align 8 dereferenceable(24) ptr @_ZN4llvm25SmallVectorTemplateCommonIN5clang6SrcMgr9SLocEntryEvEixEm(ptr noundef nonnull align 8 dereferenceable(16) %6, i64 noundef %8)
  ret ptr %9
}

; Function Attrs: mustprogress nounwind uwtable
define linkonce_odr hidden void @_ZN5clang6FileIDC2Ev(ptr noundef nonnull align 4 dereferenceable(4) %0) unnamed_addr #1 comdat align 2 {
  %2 = alloca ptr, align 8
  store ptr %0, ptr %2, align 8
  %3 = load ptr, ptr %2, align 8
  %4 = getelementptr inbounds nuw %"class.clang::FileID", ptr %3, i32 0, i32 0
  store i32 0, ptr %4, align 4
  ret void
}

; Function Attrs: mustprogress nounwind uwtable
define linkonce_odr hidden noundef ptr @_ZNK4llvm25SmallVectorTemplateCommonIN5clang6SrcMgr9SLocEntryEvE5beginEv(ptr noundef nonnull align 8 dereferenceable(16) %0) #1 comdat align 2 {
  %2 = alloca ptr, align 8
  store ptr %0, ptr %2, align 8
  %3 = load ptr, ptr %2, align 8
  %4 = getelementptr inbounds nuw %"class.llvm::SmallVectorBase", ptr %3, i32 0, i32 0
  %5 = load ptr, ptr %4, align 8
  ret ptr %5
}

; Function Attrs: mustprogress nounwind uwtable
define linkonce_odr hidden noundef nonnull align 8 dereferenceable(24) ptr @_ZNK5clang13SourceManager17getLocalSLocEntryEj(ptr noundef nonnull align 8 dereferenceable(696) %0, i32 noundef %1) #1 comdat align 2 {
  %3 = alloca ptr, align 8
  %4 = alloca i32, align 4
  store ptr %0, ptr %3, align 8
  store i32 %1, ptr %4, align 4
  %5 = load ptr, ptr %3, align 8
  %6 = load i32, ptr %4, align 4
  %7 = call noundef nonnull align 8 dereferenceable(24) ptr @_ZN5clang13SourceManager17getLocalSLocEntryEj(ptr noundef nonnull align 8 dereferenceable(696) %5, i32 noundef %6)
  ret ptr %7
}

; Function Attrs: mustprogress nounwind uwtable
define linkonce_odr hidden i32 @_ZN5clang6FileID3getEi(i32 noundef %0) #1 comdat align 2 {
  %2 = alloca %"class.clang::FileID", align 4
  %3 = alloca i32, align 4
  store i32 %0, ptr %3, align 4
  call void @_ZN5clang6FileIDC2Ev(ptr noundef nonnull align 4 dereferenceable(4) %2) #15
  %4 = load i32, ptr %3, align 4
  %5 = getelementptr inbounds nuw %"class.clang::FileID", ptr %2, i32 0, i32 0
  store i32 %4, ptr %5, align 4
  %6 = getelementptr inbounds nuw %"class.clang::FileID", ptr %2, i32 0, i32 0
  %7 = load i32, ptr %6, align 4
  ret i32 %7
}

; Function Attrs: mustprogress nounwind uwtable
define linkonce_odr hidden noundef i32 @_ZNK5clang6SrcMgr9SLocEntry9getOffsetEv(ptr noundef nonnull align 8 dereferenceable(24) %0) #1 comdat align 2 {
  %2 = alloca ptr, align 8
  store ptr %0, ptr %2, align 8
  %3 = load ptr, ptr %2, align 8
  %4 = load i32, ptr %3, align 8
  %5 = and i32 %4, 2147483647
  ret i32 %5
}

; Function Attrs: mustprogress nounwind uwtable
define linkonce_odr hidden noundef nonnull align 8 dereferenceable(24) ptr @_ZNK4llvm25SmallVectorTemplateCommonIN5clang6SrcMgr9SLocEntryEvEixEm(ptr noundef nonnull align 8 dereferenceable(16) %0, i64 noundef %1) #1 comdat align 2 {
  %3 = alloca ptr, align 8
  %4 = alloca i64, align 8
  store ptr %0, ptr %3, align 8
  store i64 %1, ptr %4, align 8
  %5 = load ptr, ptr %3, align 8
  %6 = call noundef ptr @_ZNK4llvm25SmallVectorTemplateCommonIN5clang6SrcMgr9SLocEntryEvE5beginEv(ptr noundef nonnull align 8 dereferenceable(16) %5)
  %7 = load i64, ptr %4, align 8
  %8 = getelementptr inbounds %"class.clang::SrcMgr::SLocEntry", ptr %6, i64 %7
  ret ptr %8
}

; Function Attrs: mustprogress nounwind uwtable
define dso_local i32 @_ZNK5clang13SourceManager14getFileIDLocalEj(ptr noundef nonnull align 8 dereferenceable(696) %0, i32 noundef %1) #1 align 2 {
  %3 = alloca %"class.clang::FileID", align 4
  %4 = alloca ptr, align 8
  %5 = alloca i32, align 4
  %6 = alloca i32, align 4
  %7 = alloca i32, align 4
  %8 = alloca i32, align 4
  %9 = alloca i32, align 4
  %10 = alloca i32, align 4
  store ptr %0, ptr %4, align 8
  store i32 %1, ptr %5, align 4
  %11 = load ptr, ptr %4, align 8
  store i32 0, ptr %6, align 4
  %12 = getelementptr inbounds nuw %"class.clang::SourceManager", ptr %11, i32 0, i32 10
  %13 = call noundef i64 @_ZNK4llvm15SmallVectorBaseIjE4sizeEv(ptr noundef nonnull align 8 dereferenceable(16) %12)
  %14 = trunc i64 %13 to i32
  store i32 %14, ptr %7, align 4
  %15 = getelementptr inbounds nuw %"class.clang::SourceManager", ptr %11, i32 0, i32 18
  %16 = getelementptr inbounds nuw %"class.clang::FileID", ptr %15, i32 0, i32 0
  %17 = load i32, ptr %16, align 8
  %18 = icmp sge i32 %17, 0
  br i1 %18, label %19, label %38

19:                                               ; preds = %2
  %20 = getelementptr inbounds nuw %"class.clang::SourceManager", ptr %11, i32 0, i32 10
  %21 = getelementptr inbounds nuw %"class.clang::SourceManager", ptr %11, i32 0, i32 18
  %22 = getelementptr inbounds nuw %"class.clang::FileID", ptr %21, i32 0, i32 0
  %23 = load i32, ptr %22, align 8
  %24 = sext i32 %23 to i64
  %25 = call noundef nonnull align 8 dereferenceable(24) ptr @_ZNK4llvm25SmallVectorTemplateCommonIN5clang6SrcMgr9SLocEntryEvEixEm(ptr noundef nonnull align 8 dereferenceable(16) %20, i64 noundef %24)
  %26 = call noundef i32 @_ZNK5clang6SrcMgr9SLocEntry9getOffsetEv(ptr noundef nonnull align 8 dereferenceable(24) %25)
  %27 = load i32, ptr %5, align 4
  %28 = icmp ult i32 %26, %27
  br i1 %28, label %29, label %33

29:                                               ; preds = %19
  %30 = getelementptr inbounds nuw %"class.clang::SourceManager", ptr %11, i32 0, i32 18
  %31 = getelementptr inbounds nuw %"class.clang::FileID", ptr %30, i32 0, i32 0
  %32 = load i32, ptr %31, align 8
  store i32 %32, ptr %6, align 4
  br label %37

33:                                               ; preds = %19
  %34 = getelementptr inbounds nuw %"class.clang::SourceManager", ptr %11, i32 0, i32 18
  %35 = getelementptr inbounds nuw %"class.clang::FileID", ptr %34, i32 0, i32 0
  %36 = load i32, ptr %35, align 8
  store i32 %36, ptr %7, align 4
  br label %37

37:                                               ; preds = %33, %29
  br label %38

38:                                               ; preds = %37, %2
  store i32 0, ptr %8, align 4
  br label %39

39:                                               ; preds = %64, %38
  %40 = load i32, ptr %7, align 4
  %41 = add i32 %40, -1
  store i32 %41, ptr %7, align 4
  %42 = getelementptr inbounds nuw %"class.clang::SourceManager", ptr %11, i32 0, i32 10
  %43 = load i32, ptr %7, align 4
  %44 = zext i32 %43 to i64
  %45 = call noundef nonnull align 8 dereferenceable(24) ptr @_ZNK4llvm25SmallVectorTemplateCommonIN5clang6SrcMgr9SLocEntryEvEixEm(ptr noundef nonnull align 8 dereferenceable(16) %42, i64 noundef %44)
  %46 = call noundef i32 @_ZNK5clang6SrcMgr9SLocEntry9getOffsetEv(ptr noundef nonnull align 8 dereferenceable(24) %45)
  %47 = load i32, ptr %5, align 4
  %48 = icmp ule i32 %46, %47
  br i1 %48, label %49, label %59

49:                                               ; preds = %39
  %50 = load i32, ptr %7, align 4
  %51 = call i32 @_ZN5clang6FileID3getEi(i32 noundef %50)
  %52 = getelementptr inbounds nuw %"class.clang::FileID", ptr %3, i32 0, i32 0
  store i32 %51, ptr %52, align 4
  %53 = getelementptr inbounds nuw %"class.clang::SourceManager", ptr %11, i32 0, i32 18
  call void @llvm.memcpy.p0.p0.i64(ptr align 8 %53, ptr align 4 %3, i64 4, i1 false)
  %54 = load i32, ptr %8, align 4
  %55 = add i32 %54, 1
  %56 = getelementptr inbounds nuw %"class.clang::SourceManager", ptr %11, i32 0, i32 26
  %57 = load i32, ptr %56, align 8
  %58 = add i32 %57, %55
  store i32 %58, ptr %56, align 8
  br label %108

59:                                               ; preds = %39
  %60 = load i32, ptr %8, align 4
  %61 = add i32 %60, 1
  store i32 %61, ptr %8, align 4
  %62 = icmp eq i32 %61, 8
  br i1 %62, label %63, label %64

63:                                               ; preds = %59
  br label %65

64:                                               ; preds = %59
  br label %39, !llvm.loop !12

65:                                               ; preds = %63
  store i32 0, ptr %8, align 4
  br label %66

66:                                               ; preds = %106, %81, %65
  %67 = load i32, ptr %7, align 4
  %68 = load i32, ptr %6, align 4
  %69 = sub i32 %67, %68
  %70 = udiv i32 %69, 2
  %71 = load i32, ptr %6, align 4
  %72 = add i32 %70, %71
  store i32 %72, ptr %9, align 4
  %73 = load i32, ptr %9, align 4
  %74 = call noundef nonnull align 8 dereferenceable(24) ptr @_ZNK5clang13SourceManager17getLocalSLocEntryEj(ptr noundef nonnull align 8 dereferenceable(696) %11, i32 noundef %73)
  %75 = call noundef i32 @_ZNK5clang6SrcMgr9SLocEntry9getOffsetEv(ptr noundef nonnull align 8 dereferenceable(24) %74)
  store i32 %75, ptr %10, align 4
  %76 = load i32, ptr %8, align 4
  %77 = add i32 %76, 1
  store i32 %77, ptr %8, align 4
  %78 = load i32, ptr %10, align 4
  %79 = load i32, ptr %5, align 4
  %80 = icmp ugt i32 %78, %79
  br i1 %80, label %81, label %83

81:                                               ; preds = %66
  %82 = load i32, ptr %9, align 4
  store i32 %82, ptr %7, align 4
  br label %66, !llvm.loop !13

83:                                               ; preds = %66
  %84 = load i32, ptr %9, align 4
  %85 = add i32 %84, 1
  %86 = zext i32 %85 to i64
  %87 = getelementptr inbounds nuw %"class.clang::SourceManager", ptr %11, i32 0, i32 10
  %88 = call noundef i64 @_ZNK4llvm15SmallVectorBaseIjE4sizeEv(ptr noundef nonnull align 8 dereferenceable(16) %87)
  %89 = icmp eq i64 %86, %88
  br i1 %89, label %97, label %90

90:                                               ; preds = %83
  %91 = load i32, ptr %5, align 4
  %92 = load i32, ptr %9, align 4
  %93 = add i32 %92, 1
  %94 = call noundef nonnull align 8 dereferenceable(24) ptr @_ZNK5clang13SourceManager17getLocalSLocEntryEj(ptr noundef nonnull align 8 dereferenceable(696) %11, i32 noundef %93)
  %95 = call noundef i32 @_ZNK5clang6SrcMgr9SLocEntry9getOffsetEv(ptr noundef nonnull align 8 dereferenceable(24) %94)
  %96 = icmp ult i32 %91, %95
  br i1 %96, label %97, label %106

97:                                               ; preds = %90, %83
  %98 = load i32, ptr %9, align 4
  %99 = call i32 @_ZN5clang6FileID3getEi(i32 noundef %98)
  %100 = getelementptr inbounds nuw %"class.clang::FileID", ptr %3, i32 0, i32 0
  store i32 %99, ptr %100, align 4
  %101 = getelementptr inbounds nuw %"class.clang::SourceManager", ptr %11, i32 0, i32 18
  call void @llvm.memcpy.p0.p0.i64(ptr align 8 %101, ptr align 4 %3, i64 4, i1 false)
  %102 = load i32, ptr %8, align 4
  %103 = getelementptr inbounds nuw %"class.clang::SourceManager", ptr %11, i32 0, i32 27
  %104 = load i32, ptr %103, align 4
  %105 = add i32 %104, %102
  store i32 %105, ptr %103, align 4
  br label %108

106:                                              ; preds = %90
  %107 = load i32, ptr %9, align 4
  store i32 %107, ptr %6, align 4
  br label %66, !llvm.loop !13

108:                                              ; preds = %97, %49
  %109 = getelementptr inbounds nuw %"class.clang::FileID", ptr %3, i32 0, i32 0
  %110 = load i32, ptr %109, align 4
  ret i32 %110
}