; Function Attrs: mustprogress nounwind uwtable
define dso_local i32 @_ZNK5clang13SourceManager14getFileIDLocalEj(ptr noundef nonnull align 8 dereferenceable(696) %0, i32 noundef %1) local_unnamed_addr #1 align 2 {
  %3 = getelementptr inbounds nuw i8, ptr %0, i64 184
  %4 = tail call noundef i64 @_ZNK4llvm15SmallVectorBaseIjE4sizeEv(ptr noundef nonnull align 8 dereferenceable(16) %3) #26
  %5 = trunc i64 %4 to i32
  %6 = getelementptr inbounds nuw i8, ptr %0, i64 408
  %7 = load i32, ptr %6, align 8
  %8 = icmp sgt i32 %7, -1
  %.pre = load ptr, ptr %3, align 8
  br i1 %8, label %9, label %15

9:                                                ; preds = %2
  %10 = zext nneg i32 %7 to i64
  %11 = getelementptr inbounds nuw %"class.clang::SrcMgr::SLocEntry", ptr %.pre, i64 %10
  %12 = load i32, ptr %11, align 8
  %13 = and i32 %12, 2147483647
  %14 = icmp ult i32 %13, %1
  %. = select i1 %14, i32 %5, i32 %7
  %.29 = select i1 %14, i32 %7, i32 0
  br label %15

15:                                               ; preds = %9, %2
  %.024 = phi i32 [ %5, %2 ], [ %., %9 ]
  %.0 = phi i32 [ 0, %2 ], [ %.29, %9 ]
  %16 = add i32 %.024, -8
  br label %17

17:                                               ; preds = %28, %15
  %.125 = phi i32 [ %.024, %15 ], [ %18, %28 ]
  %.022 = phi i32 [ 0, %15 ], [ %29, %28 ]
  %18 = add i32 %.125, -1
  %19 = zext i32 %18 to i64
  %20 = getelementptr inbounds nuw %"class.clang::SrcMgr::SLocEntry", ptr %.pre, i64 %19
  %21 = load i32, ptr %20, align 8
  %22 = and i32 %21, 2147483647
  %.not = icmp ugt i32 %22, %1
  br i1 %.not, label %28, label %23

23:                                               ; preds = %17
  store i32 %18, ptr %6, align 8
  %24 = add nuw i32 %.022, 1
  %25 = getelementptr inbounds nuw i8, ptr %0, i64 456
  %26 = load i32, ptr %25, align 8
  %27 = add i32 %24, %26
  store i32 %27, ptr %25, align 8
  br label %58

28:                                               ; preds = %17
  %29 = add nuw nsw i32 %.022, 1
  %30 = icmp eq i32 %29, 8
  br i1 %30, label %.outer, label %17, !llvm.loop !100

.outer:                                           ; preds = %32, %28
  %31 = phi ptr [ %.pre, %28 ], [ %33, %32 ]
  %.2.ph = phi i32 [ %16, %28 ], [ %36, %32 ]
  %.123.ph = phi i32 [ 0, %28 ], [ %41, %32 ]
  %.1.ph = phi i32 [ %.0, %28 ], [ %.1, %32 ]
  br label %32

32:                                               ; preds = %.outer, %48
  %33 = phi ptr [ %49, %48 ], [ %31, %.outer ]
  %.123 = phi i32 [ %41, %48 ], [ %.123.ph, %.outer ]
  %.1 = phi i32 [ %36, %48 ], [ %.1.ph, %.outer ]
  %34 = sub i32 %.2.ph, %.1
  %35 = lshr i32 %34, 1
  %36 = add i32 %35, %.1
  %37 = zext i32 %36 to i64
  %38 = getelementptr inbounds nuw %"class.clang::SrcMgr::SLocEntry", ptr %33, i64 %37
  %39 = load i32, ptr %38, align 8
  %40 = and i32 %39, 2147483647
  %41 = add i32 %.123, 1
  %42 = icmp ugt i32 %40, %1
  br i1 %42, label %.outer, label %43, !llvm.loop !101

43:                                               ; preds = %32
  %44 = add i32 %36, 1
  %45 = zext i32 %44 to i64
  %46 = tail call noundef i64 @_ZNK4llvm15SmallVectorBaseIjE4sizeEv(ptr noundef nonnull align 8 dereferenceable(16) %3) #26
  %47 = icmp eq i64 %46, %45
  br i1 %47, label %54, label %48

48:                                               ; preds = %43
  %49 = load ptr, ptr %3, align 8
  %50 = getelementptr inbounds nuw %"class.clang::SrcMgr::SLocEntry", ptr %49, i64 %45
  %51 = load i32, ptr %50, align 8
  %52 = and i32 %51, 2147483647
  %53 = icmp ult i32 %1, %52
  br i1 %53, label %54, label %32, !llvm.loop !101

54:                                               ; preds = %48, %43
  store i32 %36, ptr %6, align 8
  %55 = getelementptr inbounds nuw i8, ptr %0, i64 460
  %56 = load i32, ptr %55, align 4
  %57 = add i32 %56, %41
  store i32 %57, ptr %55, align 4
  br label %58

58:                                               ; preds = %54, %23
  %.sroa.0.0 = phi i32 [ %18, %23 ], [ %36, %54 ]
  ret i32 %.sroa.0.0
}